target datalayout = "e-m:e-p270:32:32-p271:32:32-p272:64:64-i64:64-i128:128-f80:128-n8:16:32:64-S128"
target triple = "x86_64-pc-linux-gnu"

%struct.PruneFreezeResult = type { i32, i32, i32, i32, i32, i8, i8, i32, i8, i32, [291 x i16] }
%struct.PageHeaderData = type { %struct.PageXLogRecPtr, i16, i16, i16, i16, i16, i16, i32, [0 x %struct.ItemIdData] }
%struct.PageXLogRecPtr = type { i32, i32 }
%struct.ItemIdData = type { i32 }
%struct.RelationData = type { %struct.RelFileLocator, ptr, i32, i32, i8, i8, i8, i8, i8, i32, i32, i32, i32, ptr, ptr, i32, %struct.LockInfoData, ptr, ptr, ptr, ptr, ptr, i8, ptr, ptr, ptr, ptr, ptr, ptr, i32, ptr, i8, ptr, ptr, i32, i8, i32, ptr, i8, ptr, ptr, ptr, ptr, ptr, ptr, ptr, i32, ptr, ptr, ptr, ptr, ptr, ptr, ptr, ptr, ptr, ptr, ptr, ptr, ptr, ptr, ptr, ptr, ptr, ptr, ptr, i32, i8, ptr }
%struct.RelFileLocator = type { i32, i32, i32 }
%struct.LockInfoData = type { %struct.LockRelId }
%struct.LockRelId = type { i32, i32 }
%struct.StdRdOptions = type { i32, i32, i32, %struct.AutoVacOpts, i8, i32, i32, i8, double }
%struct.AutoVacOpts = type { i8, i32, i32, i32, i32, i32, i32, i32, i32, i32, i32, i32, i32, double, double, double, double }

@LocalBufferBlockPointers = external global ptr, align 8
@BufferBlocks = external global ptr, align 8

; Function Attrs: inlinehint nounwind uwtable
define internal ptr @BufferGetBlock(i32 noundef %0) #2 {
  %2 = alloca ptr, align 8
  %3 = alloca i32, align 4
  store i32 %0, ptr %3, align 4
  %4 = load i32, ptr %3, align 4
  %5 = icmp slt i32 %4, 0
  br i1 %5, label %6, label %14

6:                                                ; preds = %1
  %7 = load ptr, ptr @LocalBufferBlockPointers, align 8
  %8 = load i32, ptr %3, align 4
  %9 = sub i32 0, %8
  %10 = sub i32 %9, 1
  %11 = sext i32 %10 to i64
  %12 = getelementptr inbounds ptr, ptr %7, i64 %11
  %13 = load ptr, ptr %12, align 8
  store ptr %13, ptr %2, align 8
  br label %21

14:                                               ; preds = %1
  %15 = load ptr, ptr @BufferBlocks, align 8
  %16 = load i32, ptr %3, align 4
  %17 = sub i32 %16, 1
  %18 = sext i32 %17 to i64
  %19 = mul i64 %18, 8192
  %20 = getelementptr inbounds nuw i8, ptr %15, i64 %19
  store ptr %20, ptr %2, align 8
  br label %21

21:                                               ; preds = %14, %6
  %22 = load ptr, ptr %2, align 8
  ret ptr %22
}

; Function Attrs: inlinehint nounwind uwtable
define internal zeroext i1 @PageIsFull(ptr noundef %0) #2 {
  %2 = alloca ptr, align 8
  store ptr %0, ptr %2, align 8
  %3 = load ptr, ptr %2, align 8
  %4 = getelementptr inbounds nuw %struct.PageHeaderData, ptr %3, i32 0, i32 2
  %5 = load i16, ptr %4, align 2
  %6 = zext i16 %5 to i32
  %7 = and i32 %6, 2
  %8 = icmp ne i32 %7, 0
  ret i1 %8
}

; Function Attrs: inlinehint nounwind uwtable
define internal ptr @BufferGetPage(i32 noundef %0) #2 {
  %2 = alloca i32, align 4
  store i32 %0, ptr %2, align 4
  %3 = load i32, ptr %2, align 4
  %4 = call ptr @BufferGetBlock(i32 noundef %3)
  ret ptr %4
}

; Function Attrs: nounwind uwtable
define dso_local void @heap_page_prune_opt(ptr noundef %0, i32 noundef %1) #0 {
  %3 = alloca ptr, align 8
  %4 = alloca i32, align 4
  %5 = alloca ptr, align 8
  %6 = alloca i32, align 4
  %7 = alloca ptr, align 8
  %8 = alloca i64, align 8
  %9 = alloca i32, align 4
  %10 = alloca i16, align 2
  %11 = alloca %struct.PruneFreezeResult, align 4
  store ptr %0, ptr %3, align 8
  store i32 %1, ptr %4, align 4
  call void @llvm.lifetime.start.p0(i64 8, ptr %5) #7
  %12 = load i32, ptr %4, align 4
  %13 = call ptr @BufferGetPage(i32 noundef %12)
  store ptr %13, ptr %5, align 8
  call void @llvm.lifetime.start.p0(i64 4, ptr %6) #7
  call void @llvm.lifetime.start.p0(i64 8, ptr %7) #7
  call void @llvm.lifetime.start.p0(i64 8, ptr %8) #7
  %14 = call zeroext i1 @RecoveryInProgress()
  br i1 %14, label %15, label %16

15:                                               ; preds = %2
  store i32 1, ptr %9, align 4
  br label %94

16:                                               ; preds = %2
  %17 = load ptr, ptr %5, align 8
  %18 = getelementptr inbounds nuw %struct.PageHeaderData, ptr %17, i32 0, i32 7
  %19 = load i32, ptr %18, align 4
  store i32 %19, ptr %6, align 4
  %20 = load i32, ptr %6, align 4
  %21 = icmp ne i32 %20, 0
  br i1 %21, label %23, label %22

22:                                               ; preds = %16
  store i32 1, ptr %9, align 4
  br label %94

23:                                               ; preds = %16
  %24 = load ptr, ptr %3, align 8
  %25 = call ptr @GlobalVisTestFor(ptr noundef %24)
  store ptr %25, ptr %7, align 8
  %26 = load ptr, ptr %7, align 8
  %27 = load i32, ptr %6, align 4
  %28 = call zeroext i1 @GlobalVisTestIsRemovableXid(ptr noundef %26, i32 noundef %27)
  br i1 %28, label %30, label %29

29:                                               ; preds = %23
  store i32 1, ptr %9, align 4
  br label %94

30:                                               ; preds = %23
  %31 = load ptr, ptr %3, align 8
  %32 = getelementptr inbounds nuw %struct.RelationData, ptr %31, i32 0, i32 45
  %33 = load ptr, ptr %32, align 8
  %34 = icmp ne ptr %33, null
  br i1 %34, label %35, label %41

35:                                               ; preds = %30
  %36 = load ptr, ptr %3, align 8
  %37 = getelementptr inbounds nuw %struct.RelationData, ptr %36, i32 0, i32 45
  %38 = load ptr, ptr %37, align 8
  %39 = getelementptr inbounds nuw %struct.StdRdOptions, ptr %38, i32 0, i32 1
  %40 = load i32, ptr %39, align 4
  br label %42

41:                                               ; preds = %30
  br label %42

42:                                               ; preds = %41, %35
  %43 = phi i32 [ %40, %35 ], [ 100, %41 ]
  %44 = sub i32 100, %43
  %45 = mul i32 8192, %44
  %46 = sdiv i32 %45, 100
  %47 = sext i32 %46 to i64
  store i64 %47, ptr %8, align 8
  %48 = load i64, ptr %8, align 8
  %49 = icmp ugt i64 %48, 819
  br i1 %49, label %50, label %52

50:                                               ; preds = %42
  %51 = load i64, ptr %8, align 8
  br label %53

52:                                               ; preds = %42
  br label %53

53:                                               ; preds = %52, %50
  %54 = phi i64 [ %51, %50 ], [ 819, %52 ]
  store i64 %54, ptr %8, align 8
  %55 = load ptr, ptr %5, align 8
  %56 = call zeroext i1 @PageIsFull(ptr noundef %55)
  br i1 %56, label %62, label %57

57:                                               ; preds = %53
  %58 = load ptr, ptr %5, align 8
  %59 = call i64 @PageGetHeapFreeSpace(ptr noundef %58)
  %60 = load i64, ptr %8, align 8
  %61 = icmp ult i64 %59, %60
  br i1 %61, label %62, label %93

62:                                               ; preds = %57, %53
  %63 = load i32, ptr %4, align 4
  %64 = call zeroext i1 @ConditionalLockBufferForCleanup(i32 noundef %63)
  br i1 %64, label %66, label %65

65:                                               ; preds = %62
  store i32 1, ptr %9, align 4
  br label %94

66:                                               ; preds = %62
  %67 = load ptr, ptr %5, align 8
  %68 = call zeroext i1 @PageIsFull(ptr noundef %67)
  br i1 %68, label %74, label %69

69:                                               ; preds = %66
  %70 = load ptr, ptr %5, align 8
  %71 = call i64 @PageGetHeapFreeSpace(ptr noundef %70)
  %72 = load i64, ptr %8, align 8
  %73 = icmp ult i64 %71, %72
  br i1 %73, label %74, label %91

74:                                               ; preds = %69, %66
  call void @llvm.lifetime.start.p0(i64 2, ptr %10) #7
  call void @llvm.lifetime.start.p0(i64 620, ptr %11) #7
  %75 = load ptr, ptr %3, align 8
  %76 = load i32, ptr %4, align 4
  %77 = load ptr, ptr %7, align 8
  call void @heap_page_prune_and_freeze(ptr noundef %75, i32 noundef %76, ptr noundef %77, i32 noundef 0, ptr noundef null, ptr noundef %11, i32 noundef 0, ptr noundef %10, ptr noundef null, ptr noundef null)
  %78 = getelementptr inbounds nuw %struct.PruneFreezeResult, ptr %11, i32 0, i32 0
  %79 = load i32, ptr %78, align 4
  %80 = getelementptr inbounds nuw %struct.PruneFreezeResult, ptr %11, i32 0, i32 1
  %81 = load i32, ptr %80, align 4
  %82 = icmp sgt i32 %79, %81
  br i1 %82, label %83, label %90

83:                                               ; preds = %74
  %84 = load ptr, ptr %3, align 8
  %85 = getelementptr inbounds nuw %struct.PruneFreezeResult, ptr %11, i32 0, i32 0
  %86 = load i32, ptr %85, align 4
  %87 = getelementptr inbounds nuw %struct.PruneFreezeResult, ptr %11, i32 0, i32 1
  %88 = load i32, ptr %87, align 4
  %89 = sub i32 %86, %88
  call void @pgstat_update_heap_dead_tuples(ptr noundef %84, i32 noundef %89)
  br label %90

90:                                               ; preds = %83, %74
  call void @llvm.lifetime.end.p0(i64 620, ptr %11) #7
  call void @llvm.lifetime.end.p0(i64 2, ptr %10) #7
  br label %91

91:                                               ; preds = %90, %69
  %92 = load i32, ptr %4, align 4
  call void @LockBuffer(i32 noundef %92, i32 noundef 0)
  br label %93

93:                                               ; preds = %91, %57
  store i32 0, ptr %9, align 4
  br label %94

94:                                               ; preds = %93, %65, %29, %22, %15
  call void @llvm.lifetime.end.p0(i64 8, ptr %8) #7
  call void @llvm.lifetime.end.p0(i64 8, ptr %7) #7
  call void @llvm.lifetime.end.p0(i64 4, ptr %6) #7
  call void @llvm.lifetime.end.p0(i64 8, ptr %5) #7
  %95 = load i32, ptr %9, align 4
  switch i32 %95, label %97 [
    i32 0, label %96
    i32 1, label %96
  ]

96:                                               ; preds = %94, %94
  ret void

97:                                               ; preds = %94
  unreachable
}