; Function Attrs: nounwind uwtable
define dso_local void @heap_page_prune_opt(ptr noundef %0, i32 noundef %1) local_unnamed_addr #0 {
  %3 = alloca i16, align 2
  %4 = alloca %struct.PruneFreezeResult, align 4
  %5 = icmp slt i32 %1, 0
  br i1 %5, label %6, label %12

6:                                                ; preds = %2
  %7 = load ptr, ptr @LocalBufferBlockPointers, align 8
  %8 = xor i32 %1, -1
  %9 = zext nneg i32 %8 to i64
  %10 = getelementptr inbounds nuw ptr, ptr %7, i64 %9
  %11 = load ptr, ptr %10, align 8
  br label %BufferGetPage.exit

12:                                               ; preds = %2
  %13 = load ptr, ptr @BufferBlocks, align 8
  %14 = add nsw i32 %1, -1
  %15 = sext i32 %14 to i64
  %16 = shl nsw i64 %15, 13
  %17 = getelementptr inbounds nuw i8, ptr %13, i64 %16
  br label %BufferGetPage.exit

BufferGetPage.exit:                               ; preds = %6, %12
  %.0.i.i = phi ptr [ %11, %6 ], [ %17, %12 ]
  %18 = tail call zeroext i1 @RecoveryInProgress() #8
  br i1 %18, label %59, label %19

19:                                               ; preds = %BufferGetPage.exit
  %20 = getelementptr inbounds nuw i8, ptr %.0.i.i, i64 20
  %21 = load i32, ptr %20, align 4
  %.not = icmp eq i32 %21, 0
  br i1 %.not, label %59, label %22

22:                                               ; preds = %19
  %23 = tail call ptr @GlobalVisTestFor(ptr noundef %0) #8
  %24 = tail call zeroext i1 @GlobalVisTestIsRemovableXid(ptr noundef %23, i32 noundef %21) #8
  br i1 %24, label %25, label %59

25:                                               ; preds = %22
  %26 = getelementptr inbounds nuw i8, ptr %0, i64 304
  %27 = load ptr, ptr %26, align 8
  %.not24 = icmp eq ptr %27, null
  br i1 %.not24, label %35, label %28

28:                                               ; preds = %25
  %29 = getelementptr inbounds nuw i8, ptr %27, i64 4
  %30 = load i32, ptr %29, align 4
  %31 = shl i32 %30, 13
  %32 = sub i32 819200, %31
  %33 = sdiv i32 %32, 100
  %34 = sext i32 %33 to i64
  br label %35

35:                                               ; preds = %25, %28
  %36 = phi i64 [ %34, %28 ], [ 0, %25 ]
  %37 = tail call i64 @llvm.umax.i64(i64 %36, i64 819)
  %38 = getelementptr i8, ptr %.0.i.i, i64 10
  %.val = load i16, ptr %38, align 2
  %39 = and i16 %.val, 2
  %.not26 = icmp eq i16 %39, 0
  br i1 %.not26, label %40, label %43

40:                                               ; preds = %35
  %41 = tail call i64 @PageGetHeapFreeSpace(ptr noundef nonnull %.0.i.i) #8
  %42 = icmp ult i64 %41, %37
  br i1 %42, label %43, label %59

43:                                               ; preds = %40, %35
  %44 = tail call zeroext i1 @ConditionalLockBufferForCleanup(i32 noundef %1) #8
  br i1 %44, label %45, label %59

45:                                               ; preds = %43
  %.val25 = load i16, ptr %38, align 2
  %46 = and i16 %.val25, 2
  %.not27 = icmp eq i16 %46, 0
  br i1 %.not27, label %47, label %50

47:                                               ; preds = %45
  %48 = tail call i64 @PageGetHeapFreeSpace(ptr noundef nonnull %.0.i.i) #8
  %49 = icmp ult i64 %48, %37
  br i1 %49, label %50, label %58

50:                                               ; preds = %47, %45
  call void @llvm.lifetime.start.p0(i64 2, ptr nonnull %3) #8
  call void @llvm.lifetime.start.p0(i64 620, ptr nonnull %4) #8
  call void @heap_page_prune_and_freeze(ptr noundef nonnull %0, i32 noundef %1, ptr noundef %23, i32 noundef 0, ptr noundef null, ptr noundef nonnull %4, i32 noundef 0, ptr noundef nonnull %3, ptr noundef null, ptr noundef null)
  %51 = load i32, ptr %4, align 4
  %52 = getelementptr inbounds nuw i8, ptr %4, i64 4
  %53 = load i32, ptr %52, align 4
  %54 = icmp sgt i32 %51, %53
  br i1 %54, label %55, label %57

55:                                               ; preds = %50
  %56 = sub i32 %51, %53
  call void @pgstat_update_heap_dead_tuples(ptr noundef nonnull %0, i32 noundef %56) #8
  br label %57

57:                                               ; preds = %55, %50
  call void @llvm.lifetime.end.p0(i64 620, ptr nonnull %4) #8
  call void @llvm.lifetime.end.p0(i64 2, ptr nonnull %3) #8
  br label %58

58:                                               ; preds = %57, %47
  call void @LockBuffer(i32 noundef %1, i32 noundef 0) #8
  br label %59

59:                                               ; preds = %40, %58, %43, %22, %19, %BufferGetPage.exit
  ret void
}